target datalayout = "e-m:e-p270:32:32-p271:32:32-p272:64:64-i64:64-i128:128-f80:128-n8:16:32:64-S128"
target triple = "x86_64-pc-linux-gnu"

%struct.Abc_Ntk_t_ = type { i32, i32, ptr, ptr, ptr, ptr, ptr, ptr, ptr, ptr, ptr, ptr, ptr, [11 x i32], i32, i32, i32, i32, ptr, i32, ptr, ptr, i32, i32, i32, double, i32, %struct.Vec_Int_t_, ptr, ptr, ptr, ptr, ptr, float, i32, ptr, ptr, ptr, ptr, ptr, ptr, ptr, ptr, ptr, ptr, ptr, ptr, ptr, ptr, ptr, ptr, ptr, ptr, ptr, ptr, ptr }
%struct.Vec_Int_t_ = type { i32, i32, ptr }

@stdout = external global ptr, align 8
@.str.28 = private unnamed_addr constant [40 x i8] c"Flattening logic hierarchy has failed.\0A\00", align 1
@.str.29 = private unnamed_addr constant [56 x i8] c"Hierarchy reader converted %d instances of blackboxes.\0A\00", align 1
@.str.30 = private unnamed_addr constant [35 x i8] c"Converting blackboxes has failed.\0A\00", align 1
@.str.31 = private unnamed_addr constant [39 x i8] c"Converting BLIF-MV to AIG has failed.\0A\00", align 1
@.str.32 = private unnamed_addr constant [63 x i8] c"Converting netlist to logic network after reading has failed.\0A\00", align 1

; Function Attrs: nounwind uwtable
define internal i32 @Abc_NtkBlackboxNum(ptr noundef %0) #0 {
  %2 = alloca ptr, align 8
  store ptr %0, ptr %2, align 8
  %3 = load ptr, ptr %2, align 8
  %4 = getelementptr inbounds %struct.Abc_Ntk_t_, ptr %3, i32 0, i32 13
  %5 = getelementptr inbounds [11 x i32], ptr %4, i64 0, i64 10
  %6 = load i32, ptr %5, align 8
  ret i32 %6
}

; Function Attrs: nounwind uwtable
define internal i32 @Abc_NtkWhiteboxNum(ptr noundef %0) #0 {
  %2 = alloca ptr, align 8
  store ptr %0, ptr %2, align 8
  %3 = load ptr, ptr %2, align 8
  %4 = getelementptr inbounds %struct.Abc_Ntk_t_, ptr %3, i32 0, i32 13
  %5 = getelementptr inbounds [11 x i32], ptr %4, i64 0, i64 9
  %6 = load i32, ptr %5, align 4
  ret i32 %6
}

; Function Attrs: nounwind uwtable
define internal i32 @Abc_NtkIsNetlist(ptr noundef %0) #0 {
  %2 = alloca ptr, align 8
  store ptr %0, ptr %2, align 8
  %3 = load ptr, ptr %2, align 8
  %4 = getelementptr inbounds %struct.Abc_Ntk_t_, ptr %3, i32 0, i32 0
  %5 = load i32, ptr %4, align 8
  %6 = icmp eq i32 %5, 1
  %7 = zext i1 %6 to i32
  ret i32 %7
}

; Function Attrs: nounwind uwtable
define ptr @Io_Read(ptr noundef %0, i32 noundef %1, i32 noundef %2, i32 noundef %3) #0 {
  %5 = alloca ptr, align 8
  %6 = alloca ptr, align 8
  %7 = alloca i32, align 4
  %8 = alloca i32, align 4
  %9 = alloca i32, align 4
  %10 = alloca ptr, align 8
  %11 = alloca ptr, align 8
  %12 = alloca ptr, align 8
  store ptr %0, ptr %6, align 8
  store i32 %1, ptr %7, align 4
  store i32 %2, ptr %8, align 4
  store i32 %3, ptr %9, align 4
  %13 = load ptr, ptr %6, align 8
  %14 = load i32, ptr %7, align 4
  %15 = load i32, ptr %8, align 4
  %16 = call ptr @Io_ReadNetlist(ptr noundef %13, i32 noundef %14, i32 noundef %15)
  store ptr %16, ptr %10, align 8
  %17 = load ptr, ptr %10, align 8
  %18 = icmp eq ptr %17, null
  br i1 %18, label %19, label %20

19:                                               ; preds = %4
  store ptr null, ptr %5, align 8
  br label %99

20:                                               ; preds = %4
  %21 = load ptr, ptr %10, align 8
  %22 = call ptr @temporaryLtlStore(ptr noundef %21)
  store ptr %22, ptr %12, align 8
  %23 = load ptr, ptr %10, align 8
  %24 = call i32 @Abc_NtkIsNetlist(ptr noundef %23)
  %25 = icmp ne i32 %24, 0
  br i1 %25, label %28, label %26

26:                                               ; preds = %20
  %27 = load ptr, ptr %10, align 8
  store ptr %27, ptr %5, align 8
  br label %99

28:                                               ; preds = %20
  %29 = load i32, ptr %9, align 4
  %30 = icmp ne i32 %29, 0
  br i1 %30, label %31, label %36

31:                                               ; preds = %28
  %32 = load ptr, ptr %10, align 8
  store ptr %32, ptr %11, align 8
  %33 = call ptr @Abc_NtkToBarBufs(ptr noundef %32)
  store ptr %33, ptr %10, align 8
  %34 = load ptr, ptr %11, align 8
  call void @Abc_NtkDelete(ptr noundef %34)
  %35 = load ptr, ptr %10, align 8
  store ptr %35, ptr %5, align 8
  br label %99

36:                                               ; preds = %28
  %37 = load ptr, ptr %10, align 8
  %38 = call i32 @Abc_NtkWhiteboxNum(ptr noundef %37)
  %39 = icmp sgt i32 %38, 0
  br i1 %39, label %40, label %50

40:                                               ; preds = %36
  %41 = load ptr, ptr %10, align 8
  store ptr %41, ptr %11, align 8
  %42 = call ptr @Abc_NtkFlattenLogicHierarchy(ptr noundef %41)
  store ptr %42, ptr %10, align 8
  %43 = load ptr, ptr %11, align 8
  call void @Abc_NtkDelete(ptr noundef %43)
  %44 = load ptr, ptr %10, align 8
  %45 = icmp eq ptr %44, null
  br i1 %45, label %46, label %49

46:                                               ; preds = %40
  %47 = load ptr, ptr @stdout, align 8
  %48 = call i32 (ptr, ptr, ...) @fprintf(ptr noundef %47, ptr noundef @.str.28) #9
  store ptr null, ptr %5, align 8
  br label %99

49:                                               ; preds = %40
  br label %50

50:                                               ; preds = %49, %36
  %51 = load ptr, ptr %10, align 8
  %52 = call i32 @Abc_NtkBlackboxNum(ptr noundef %51)
  %53 = icmp sgt i32 %52, 0
  br i1 %53, label %54, label %67

54:                                               ; preds = %50
  %55 = load ptr, ptr %10, align 8
  %56 = call i32 @Abc_NtkBlackboxNum(ptr noundef %55)
  %57 = call i32 (ptr, ...) @printf(ptr noundef @.str.29, i32 noundef %56)
  %58 = load ptr, ptr %10, align 8
  store ptr %58, ptr %11, align 8
  %59 = call ptr @Abc_NtkConvertBlackboxes(ptr noundef %58)
  store ptr %59, ptr %10, align 8
  %60 = load ptr, ptr %11, align 8
  call void @Abc_NtkDelete(ptr noundef %60)
  %61 = load ptr, ptr %10, align 8
  %62 = icmp eq ptr %61, null
  br i1 %62, label %63, label %66

63:                                               ; preds = %54
  %64 = load ptr, ptr @stdout, align 8
  %65 = call i32 (ptr, ptr, ...) @fprintf(ptr noundef %64, ptr noundef @.str.30) #9
  store ptr null, ptr %5, align 8
  br label %99

66:                                               ; preds = %54
  br label %67

67:                                               ; preds = %66, %50
  %68 = load ptr, ptr %6, align 8
  %69 = call i32 @Io_ReadFileType(ptr noundef %68)
  %70 = icmp eq i32 %69, 5
  br i1 %70, label %71, label %82

71:                                               ; preds = %67
  %72 = load ptr, ptr %10, align 8
  store ptr %72, ptr %11, align 8
  %73 = call ptr @Abc_NtkStrashBlifMv(ptr noundef %72)
  store ptr %73, ptr %10, align 8
  %74 = load ptr, ptr %11, align 8
  call void @Abc_NtkDelete(ptr noundef %74)
  %75 = load ptr, ptr %10, align 8
  %76 = icmp eq ptr %75, null
  br i1 %76, label %77, label %80

77:                                               ; preds = %71
  %78 = load ptr, ptr @stdout, align 8
  %79 = call i32 (ptr, ptr, ...) @fprintf(ptr noundef %78, ptr noundef @.str.31) #9
  store ptr null, ptr %5, align 8
  br label %99

80:                                               ; preds = %71
  %81 = load ptr, ptr %10, align 8
  store ptr %81, ptr %5, align 8
  br label %99

82:                                               ; preds = %67
  %83 = load ptr, ptr %10, align 8
  store ptr %83, ptr %11, align 8
  %84 = call ptr @Abc_NtkToLogic(ptr noundef %83)
  store ptr %84, ptr %10, align 8
  %85 = load ptr, ptr %12, align 8
  %86 = icmp ne ptr %85, null
  br i1 %86, label %87, label %90

87:                                               ; preds = %82
  %88 = load ptr, ptr %10, align 8
  %89 = load ptr, ptr %12, align 8
  call void @updateLtlStoreOfNtk(ptr noundef %88, ptr noundef %89)
  br label %90

90:                                               ; preds = %87, %82
  %91 = load ptr, ptr %11, align 8
  call void @Abc_NtkDelete(ptr noundef %91)
  %92 = load ptr, ptr %10, align 8
  %93 = icmp eq ptr %92, null
  br i1 %93, label %94, label %97

94:                                               ; preds = %90
  %95 = load ptr, ptr @stdout, align 8
  %96 = call i32 (ptr, ptr, ...) @fprintf(ptr noundef %95, ptr noundef @.str.32) #9
  store ptr null, ptr %5, align 8
  br label %99

97:                                               ; preds = %90
  %98 = load ptr, ptr %10, align 8
  store ptr %98, ptr %5, align 8
  br label %99

99:                                               ; preds = %97, %94, %80, %77, %63, %46, %31, %26, %19
  %100 = load ptr, ptr %5, align 8
  ret ptr %100
}