; Function Attrs: nounwind uwtable
define ptr @Io_Read(ptr noundef %0, i32 noundef %1, i32 noundef %2, i32 noundef %3) local_unnamed_addr #0 {
  %5 = tail call ptr @Io_ReadNetlist(ptr noundef %0, i32 noundef %1, i32 noundef %2)
  %6 = icmp eq ptr %5, null
  br i1 %6, label %48, label %7

7:                                                ; preds = %4
  %8 = tail call ptr @temporaryLtlStore(ptr noundef nonnull %5)
  %.val42 = load i32, ptr %5, align 8
  %.not = icmp eq i32 %.val42, 1
  br i1 %.not, label %9, label %48

9:                                                ; preds = %7
  %.not39 = icmp eq i32 %3, 0
  br i1 %.not39, label %12, label %10

10:                                               ; preds = %9
  %11 = tail call ptr @Abc_NtkToBarBufs(ptr noundef nonnull %5) #14
  tail call void @Abc_NtkDelete(ptr noundef nonnull %5) #14
  br label %48

12:                                               ; preds = %9
  %13 = getelementptr i8, ptr %5, i64 132
  %.val = load i32, ptr %13, align 4
  %14 = icmp sgt i32 %.val, 0
  br i1 %14, label %15, label %21

15:                                               ; preds = %12
  %16 = tail call ptr @Abc_NtkFlattenLogicHierarchy(ptr noundef nonnull %5) #14
  tail call void @Abc_NtkDelete(ptr noundef nonnull %5) #14
  %17 = icmp eq ptr %16, null
  br i1 %17, label %18, label %21

18:                                               ; preds = %15
  %19 = load ptr, ptr @stdout, align 8
  %20 = tail call i64 @fwrite(ptr nonnull @.str.28, i64 39, i64 1, ptr %19)
  br label %48

21:                                               ; preds = %15, %12
  %.032 = phi ptr [ %16, %15 ], [ %5, %12 ]
  %22 = getelementptr i8, ptr %.032, i64 136
  %.032.val41 = load i32, ptr %22, align 8
  %23 = icmp sgt i32 %.032.val41, 0
  br i1 %23, label %24, label %31

24:                                               ; preds = %21
  %25 = tail call i32 (ptr, ...) @printf(ptr noundef nonnull dereferenceable(1) @.str.29, i32 noundef %.032.val41)
  %26 = tail call ptr @Abc_NtkConvertBlackboxes(ptr noundef nonnull %.032) #14
  tail call void @Abc_NtkDelete(ptr noundef nonnull %.032) #14
  %27 = icmp eq ptr %26, null
  br i1 %27, label %28, label %31

28:                                               ; preds = %24
  %29 = load ptr, ptr @stdout, align 8
  %30 = tail call i64 @fwrite(ptr nonnull @.str.30, i64 34, i64 1, ptr %29)
  br label %48

31:                                               ; preds = %24, %21
  %.1 = phi ptr [ %26, %24 ], [ %.032, %21 ]
  %32 = tail call i32 @Io_ReadFileType(ptr noundef %0)
  %33 = icmp eq i32 %32, 5
  br i1 %33, label %34, label %40

34:                                               ; preds = %31
  %35 = tail call ptr @Abc_NtkStrashBlifMv(ptr noundef nonnull %.1) #14
  tail call void @Abc_NtkDelete(ptr noundef nonnull %.1) #14
  %36 = icmp eq ptr %35, null
  br i1 %36, label %37, label %48

37:                                               ; preds = %34
  %38 = load ptr, ptr @stdout, align 8
  %39 = tail call i64 @fwrite(ptr nonnull @.str.31, i64 38, i64 1, ptr %38)
  br label %48

40:                                               ; preds = %31
  %41 = tail call ptr @Abc_NtkToLogic(ptr noundef nonnull %.1) #14
  %.not40 = icmp eq ptr %8, null
  br i1 %.not40, label %43, label %42

42:                                               ; preds = %40
  tail call void @updateLtlStoreOfNtk(ptr noundef %41, ptr noundef nonnull %8)
  br label %43

43:                                               ; preds = %42, %40
  tail call void @Abc_NtkDelete(ptr noundef nonnull %.1) #14
  %44 = icmp eq ptr %41, null
  br i1 %44, label %45, label %48

45:                                               ; preds = %43
  %46 = load ptr, ptr @stdout, align 8
  %47 = tail call i64 @fwrite(ptr nonnull @.str.32, i64 62, i64 1, ptr %46)
  br label %48

48:                                               ; preds = %43, %34, %7, %4, %45, %37, %28, %18, %10
  %.0 = phi ptr [ %11, %10 ], [ null, %18 ], [ null, %28 ], [ null, %37 ], [ null, %45 ], [ null, %4 ], [ %5, %7 ], [ %35, %34 ], [ %41, %43 ]
  ret ptr %.0
}